target datalayout = "e-m:e-p270:32:32-p271:32:32-p272:64:64-i64:64-i128:128-f80:128-n8:16:32:64-S128"
target triple = "x86_64-pc-linux-gnu"

%"class.gmx::ArrayRef" = type { %"struct.gmx::ArrayRefIter", %"struct.gmx::ArrayRefIter" }
%"struct.gmx::ArrayRefIter" = type { ptr }
%union.t_iparams = type { %struct.anon.21 }
%struct.anon.21 = type { [3 x float], [3 x float], [3 x float], [3 x float] }
%struct.anon.20 = type { float, float, float, float, float, float }

; Function Attrs: mustprogress nounwind uwtable
define linkonce_odr noundef float @_ZSt4sqrtf(float noundef %0) #3 comdat {
  %2 = alloca float, align 4
  store float %0, ptr %2, align 4
  %3 = load float, ptr %2, align 4
  %4 = call float @sqrtf(float noundef %3) #4
  ret float %4
}

; Function Attrs: mustprogress nounwind uwtable
define internal void @_ZL8rvec_subPKfS0_Pf(ptr noundef %0, ptr noundef %1, ptr noundef %2) #3 {
  %4 = alloca ptr, align 8
  %5 = alloca ptr, align 8
  %6 = alloca ptr, align 8
  %7 = alloca float, align 4
  %8 = alloca float, align 4
  %9 = alloca float, align 4
  store ptr %0, ptr %4, align 8
  store ptr %1, ptr %5, align 8
  store ptr %2, ptr %6, align 8
  %10 = load ptr, ptr %4, align 8
  %11 = getelementptr inbounds float, ptr %10, i64 0
  %12 = load float, ptr %11, align 4
  %13 = load ptr, ptr %5, align 8
  %14 = getelementptr inbounds float, ptr %13, i64 0
  %15 = load float, ptr %14, align 4
  %16 = fsub float %12, %15
  store float %16, ptr %7, align 4
  %17 = load ptr, ptr %4, align 8
  %18 = getelementptr inbounds float, ptr %17, i64 1
  %19 = load float, ptr %18, align 4
  %20 = load ptr, ptr %5, align 8
  %21 = getelementptr inbounds float, ptr %20, i64 1
  %22 = load float, ptr %21, align 4
  %23 = fsub float %19, %22
  store float %23, ptr %8, align 4
  %24 = load ptr, ptr %4, align 8
  %25 = getelementptr inbounds float, ptr %24, i64 2
  %26 = load float, ptr %25, align 4
  %27 = load ptr, ptr %5, align 8
  %28 = getelementptr inbounds float, ptr %27, i64 2
  %29 = load float, ptr %28, align 4
  %30 = fsub float %26, %29
  store float %30, ptr %9, align 4
  %31 = load float, ptr %7, align 4
  %32 = load ptr, ptr %6, align 8
  %33 = getelementptr inbounds float, ptr %32, i64 0
  store float %31, ptr %33, align 4
  %34 = load float, ptr %8, align 4
  %35 = load ptr, ptr %6, align 8
  %36 = getelementptr inbounds float, ptr %35, i64 1
  store float %34, ptr %36, align 4
  %37 = load float, ptr %9, align 4
  %38 = load ptr, ptr %6, align 8
  %39 = getelementptr inbounds float, ptr %38, i64 2
  store float %37, ptr %39, align 4
  ret void
}

; Function Attrs: mustprogress nounwind uwtable
define internal void @_ZN12_GLOBAL__N_116spreadBondForcesIL18BondedKernelFlavor1EEEvfPKfiiPA4_fiPA3_f(float noundef %0, ptr noundef %1, i32 noundef %2, i32 noundef %3, ptr noundef %4, i32 noundef %5, ptr noundef %6) #3 {
  %8 = alloca float, align 4
  %9 = alloca ptr, align 8
  %10 = alloca i32, align 4
  %11 = alloca i32, align 4
  %12 = alloca ptr, align 8
  %13 = alloca i32, align 4
  %14 = alloca ptr, align 8
  %15 = alloca i32, align 4
  %16 = alloca float, align 4
  store float %0, ptr %8, align 4
  store ptr %1, ptr %9, align 8
  store i32 %2, ptr %10, align 4
  store i32 %3, ptr %11, align 4
  store ptr %4, ptr %12, align 8
  store i32 %5, ptr %13, align 4
  store ptr %6, ptr %14, align 8
  store i32 0, ptr %15, align 4
  br label %17

17:                                               ; preds = %48, %7
  %18 = load i32, ptr %15, align 4
  %19 = icmp slt i32 %18, 3
  br i1 %19, label %20, label %51

20:                                               ; preds = %17
  %21 = load float, ptr %8, align 4
  %22 = load ptr, ptr %9, align 8
  %23 = load i32, ptr %15, align 4
  %24 = sext i32 %23 to i64
  %25 = getelementptr inbounds float, ptr %22, i64 %24
  %26 = load float, ptr %25, align 4
  %27 = fmul float %21, %26
  store float %27, ptr %16, align 4
  %28 = load float, ptr %16, align 4
  %29 = load ptr, ptr %12, align 8
  %30 = load i32, ptr %10, align 4
  %31 = sext i32 %30 to i64
  %32 = getelementptr inbounds [4 x float], ptr %29, i64 %31
  %33 = load i32, ptr %15, align 4
  %34 = sext i32 %33 to i64
  %35 = getelementptr inbounds [4 x float], ptr %32, i64 0, i64 %34
  %36 = load float, ptr %35, align 4
  %37 = fadd float %36, %28
  store float %37, ptr %35, align 4
  %38 = load float, ptr %16, align 4
  %39 = load ptr, ptr %12, align 8
  %40 = load i32, ptr %11, align 4
  %41 = sext i32 %40 to i64
  %42 = getelementptr inbounds [4 x float], ptr %39, i64 %41
  %43 = load i32, ptr %15, align 4
  %44 = sext i32 %43 to i64
  %45 = getelementptr inbounds [4 x float], ptr %42, i64 0, i64 %44
  %46 = load float, ptr %45, align 4
  %47 = fsub float %46, %38
  store float %47, ptr %45, align 4
  br label %48

48:                                               ; preds = %20
  %49 = load i32, ptr %15, align 4
  %50 = add nsw i32 %49, 1
  store i32 %50, ptr %15, align 4
  br label %17, !llvm.loop !208

51:                                               ; preds = %17
  ret void
}

; Function Attrs: mustprogress nounwind uwtable
define linkonce_odr noundef float @_ZSt3expf(float noundef %0) #3 comdat {
  %2 = alloca float, align 4
  store float %0, ptr %2, align 4
  %3 = load float, ptr %2, align 4
  %4 = call float @expf(float noundef %3) #4
  ret float %4
}

; Function Attrs: mustprogress nounwind uwtable
define internal noundef float @_ZN3gmxL7invsqrtEf(float noundef %0) #3 {
  %2 = alloca float, align 4
  store float %0, ptr %2, align 4
  %3 = load float, ptr %2, align 4
  %4 = call noundef float @_ZSt4sqrtf(float noundef %3)
  %5 = fdiv float 1.000000e+00, %4
  ret float %5
}

; Function Attrs: mustprogress nounwind uwtable
define internal noundef float @_ZL5iprodPKfS0_(ptr noundef %0, ptr noundef %1) #3 {
  %3 = alloca ptr, align 8
  %4 = alloca ptr, align 8
  store ptr %0, ptr %3, align 8
  store ptr %1, ptr %4, align 8
  %5 = load ptr, ptr %3, align 8
  %6 = getelementptr inbounds float, ptr %5, i64 0
  %7 = load float, ptr %6, align 4
  %8 = load ptr, ptr %4, align 8
  %9 = getelementptr inbounds float, ptr %8, i64 0
  %10 = load float, ptr %9, align 4
  %11 = load ptr, ptr %3, align 8
  %12 = getelementptr inbounds float, ptr %11, i64 1
  %13 = load float, ptr %12, align 4
  %14 = load ptr, ptr %4, align 8
  %15 = getelementptr inbounds float, ptr %14, i64 1
  %16 = load float, ptr %15, align 4
  %17 = fmul float %13, %16
  %18 = call float @llvm.fmuladd.f32(float %7, float %10, float %17)
  %19 = load ptr, ptr %3, align 8
  %20 = getelementptr inbounds float, ptr %19, i64 2
  %21 = load float, ptr %20, align 4
  %22 = load ptr, ptr %4, align 8
  %23 = getelementptr inbounds float, ptr %22, i64 2
  %24 = load float, ptr %23, align 4
  %25 = call float @llvm.fmuladd.f32(float %21, float %24, float %18)
  ret float %25
}

; Function Attrs: mustprogress uwtable
define internal noundef i32 @_ZN12_GLOBAL__N_112pbc_rvec_subEPK5t_pbcPKfS4_Pf(ptr noundef %0, ptr noundef %1, ptr noundef %2, ptr noundef %3) #2 {
  %5 = alloca i32, align 4
  %6 = alloca ptr, align 8
  %7 = alloca ptr, align 8
  %8 = alloca ptr, align 8
  %9 = alloca ptr, align 8
  store ptr %0, ptr %6, align 8
  store ptr %1, ptr %7, align 8
  store ptr %2, ptr %8, align 8
  store ptr %3, ptr %9, align 8
  %10 = load ptr, ptr %6, align 8
  %11 = icmp ne ptr %10, null
  br i1 %11, label %12, label %18

12:                                               ; preds = %4
  %13 = load ptr, ptr %6, align 8
  %14 = load ptr, ptr %7, align 8
  %15 = load ptr, ptr %8, align 8
  %16 = load ptr, ptr %9, align 8
  %17 = call noundef i32 @_Z11pbc_dx_aiucPK5t_pbcPKfS3_Pf(ptr noundef %13, ptr noundef %14, ptr noundef %15, ptr noundef %16)
  store i32 %17, ptr %5, align 4
  br label %22

18:                                               ; preds = %4
  %19 = load ptr, ptr %7, align 8
  %20 = load ptr, ptr %8, align 8
  %21 = load ptr, ptr %9, align 8
  call void @_ZL8rvec_subPKfS0_Pf(ptr noundef %19, ptr noundef %20, ptr noundef %21)
  store i32 22, ptr %5, align 4
  br label %22

22:                                               ; preds = %18, %12
  %23 = load i32, ptr %5, align 4
  ret i32 %23
}

; Function Attrs: mustprogress uwtable
define internal noundef float @_ZN12_GLOBAL__N_111morse_bondsIL18BondedKernelFlavor1EEEfiPKiPK9t_iparamsPA3_KfPA4_fPA3_fPK5t_pbcfPfN3gmx8ArrayRefIS7_EEP8t_fcdataP12t_disresdataP12t_oriresdataPi(i32 noundef %0, ptr noundef %1, ptr noundef %2, ptr noundef %3, ptr noundef %4, ptr noundef %5, ptr noundef %6, float noundef %7, ptr noundef %8, ptr noundef byval(%"class.gmx::ArrayRef") align 8 %9, ptr noundef %10, ptr noundef %11, ptr noundef %12, ptr noundef %13) #2 {
  %15 = alloca i32, align 4
  %16 = alloca ptr, align 8
  %17 = alloca ptr, align 8
  %18 = alloca ptr, align 8
  %19 = alloca ptr, align 8
  %20 = alloca ptr, align 8
  %21 = alloca ptr, align 8
  %22 = alloca float, align 4
  %23 = alloca ptr, align 8
  %24 = alloca ptr, align 8
  %25 = alloca ptr, align 8
  %26 = alloca ptr, align 8
  %27 = alloca ptr, align 8
  %28 = alloca float, align 4
  %29 = alloca float, align 4
  %30 = alloca float, align 4
  %31 = alloca float, align 4
  %32 = alloca float, align 4
  %33 = alloca float, align 4
  %34 = alloca float, align 4
  %35 = alloca float, align 4
  %36 = alloca float, align 4
  %37 = alloca float, align 4
  %38 = alloca float, align 4
  %39 = alloca float, align 4
  %40 = alloca float, align 4
  %41 = alloca float, align 4
  %42 = alloca float, align 4
  %43 = alloca float, align 4
  %44 = alloca float, align 4
  %45 = alloca float, align 4
  %46 = alloca float, align 4
  %47 = alloca float, align 4
  %48 = alloca [3 x float], align 4
  %49 = alloca i32, align 4
  %50 = alloca i32, align 4
  %51 = alloca i32, align 4
  %52 = alloca i32, align 4
  %53 = alloca i32, align 4
  store i32 %0, ptr %15, align 4
  store ptr %1, ptr %16, align 8
  store ptr %2, ptr %17, align 8
  store ptr %3, ptr %18, align 8
  store ptr %4, ptr %19, align 8
  store ptr %5, ptr %20, align 8
  store ptr %6, ptr %21, align 8
  store float %7, ptr %22, align 4
  store ptr %8, ptr %23, align 8
  store ptr %10, ptr %24, align 8
  store ptr %11, ptr %25, align 8
  store ptr %12, ptr %26, align 8
  store ptr %13, ptr %27, align 8
  store float 1.000000e+00, ptr %28, align 4
  store float 2.000000e+00, ptr %29, align 4
  store float 0.000000e+00, ptr %37, align 4
  store i32 0, ptr %49, align 4
  br label %54

54:                                               ; preds = %169, %162, %14
  %55 = load i32, ptr %49, align 4
  %56 = load i32, ptr %15, align 4
  %57 = icmp slt i32 %55, %56
  br i1 %57, label %58, label %228

58:                                               ; preds = %54
  %59 = load ptr, ptr %16, align 8
  %60 = load i32, ptr %49, align 4
  %61 = add nsw i32 %60, 1
  store i32 %61, ptr %49, align 4
  %62 = sext i32 %60 to i64
  %63 = getelementptr inbounds i32, ptr %59, i64 %62
  %64 = load i32, ptr %63, align 4
  store i32 %64, ptr %51, align 4
  %65 = load ptr, ptr %16, align 8
  %66 = load i32, ptr %49, align 4
  %67 = add nsw i32 %66, 1
  store i32 %67, ptr %49, align 4
  %68 = sext i32 %66 to i64
  %69 = getelementptr inbounds i32, ptr %65, i64 %68
  %70 = load i32, ptr %69, align 4
  store i32 %70, ptr %52, align 4
  %71 = load ptr, ptr %16, align 8
  %72 = load i32, ptr %49, align 4
  %73 = add nsw i32 %72, 1
  store i32 %73, ptr %49, align 4
  %74 = sext i32 %72 to i64
  %75 = getelementptr inbounds i32, ptr %71, i64 %74
  %76 = load i32, ptr %75, align 4
  store i32 %76, ptr %53, align 4
  %77 = load ptr, ptr %17, align 8
  %78 = load i32, ptr %51, align 4
  %79 = sext i32 %78 to i64
  %80 = getelementptr inbounds %union.t_iparams, ptr %77, i64 %79
  %81 = getelementptr inbounds %struct.anon.20, ptr %80, i32 0, i32 0
  %82 = load float, ptr %81, align 4
  store float %82, ptr %41, align 4
  %83 = load ptr, ptr %17, align 8
  %84 = load i32, ptr %51, align 4
  %85 = sext i32 %84 to i64
  %86 = getelementptr inbounds %union.t_iparams, ptr %83, i64 %85
  %87 = getelementptr inbounds %struct.anon.20, ptr %86, i32 0, i32 2
  %88 = load float, ptr %87, align 4
  store float %88, ptr %42, align 4
  %89 = load ptr, ptr %17, align 8
  %90 = load i32, ptr %51, align 4
  %91 = sext i32 %90 to i64
  %92 = getelementptr inbounds %union.t_iparams, ptr %89, i64 %91
  %93 = getelementptr inbounds %struct.anon.20, ptr %92, i32 0, i32 1
  %94 = load float, ptr %93, align 4
  store float %94, ptr %43, align 4
  %95 = load ptr, ptr %17, align 8
  %96 = load i32, ptr %51, align 4
  %97 = sext i32 %96 to i64
  %98 = getelementptr inbounds %union.t_iparams, ptr %95, i64 %97
  %99 = getelementptr inbounds %struct.anon.20, ptr %98, i32 0, i32 3
  %100 = load float, ptr %99, align 4
  store float %100, ptr %44, align 4
  %101 = load ptr, ptr %17, align 8
  %102 = load i32, ptr %51, align 4
  %103 = sext i32 %102 to i64
  %104 = getelementptr inbounds %union.t_iparams, ptr %101, i64 %103
  %105 = getelementptr inbounds %struct.anon.20, ptr %104, i32 0, i32 5
  %106 = load float, ptr %105, align 4
  store float %106, ptr %45, align 4
  %107 = load ptr, ptr %17, align 8
  %108 = load i32, ptr %51, align 4
  %109 = sext i32 %108 to i64
  %110 = getelementptr inbounds %union.t_iparams, ptr %107, i64 %109
  %111 = getelementptr inbounds %struct.anon.20, ptr %110, i32 0, i32 4
  %112 = load float, ptr %111, align 4
  store float %112, ptr %46, align 4
  %113 = load float, ptr %22, align 4
  %114 = fsub float 1.000000e+00, %113
  store float %114, ptr %47, align 4
  %115 = load float, ptr %47, align 4
  %116 = load float, ptr %41, align 4
  %117 = load float, ptr %22, align 4
  %118 = load float, ptr %44, align 4
  %119 = fmul float %117, %118
  %120 = call float @llvm.fmuladd.f32(float %115, float %116, float %119)
  store float %120, ptr %38, align 4
  %121 = load float, ptr %47, align 4
  %122 = load float, ptr %42, align 4
  %123 = load float, ptr %22, align 4
  %124 = load float, ptr %45, align 4
  %125 = fmul float %123, %124
  %126 = call float @llvm.fmuladd.f32(float %121, float %122, float %125)
  store float %126, ptr %39, align 4
  %127 = load float, ptr %47, align 4
  %128 = load float, ptr %43, align 4
  %129 = load float, ptr %22, align 4
  %130 = load float, ptr %46, align 4
  %131 = fmul float %129, %130
  %132 = call float @llvm.fmuladd.f32(float %127, float %128, float %131)
  store float %132, ptr %40, align 4
  %133 = load ptr, ptr %21, align 8
  %134 = load ptr, ptr %18, align 8
  %135 = load i32, ptr %52, align 4
  %136 = sext i32 %135 to i64
  %137 = getelementptr inbounds [3 x float], ptr %134, i64 %136
  %138 = getelementptr inbounds [3 x float], ptr %137, i64 0, i64 0
  %139 = load ptr, ptr %18, align 8
  %140 = load i32, ptr %53, align 4
  %141 = sext i32 %140 to i64
  %142 = getelementptr inbounds [3 x float], ptr %139, i64 %141
  %143 = getelementptr inbounds [3 x float], ptr %142, i64 0, i64 0
  %144 = getelementptr inbounds [3 x float], ptr %48, i64 0, i64 0
  %145 = call noundef i32 @_ZN12_GLOBAL__N_112pbc_rvec_subEPK5t_pbcPKfS4_Pf(ptr noundef %133, ptr noundef %138, ptr noundef %143, ptr noundef %144)
  store i32 %145, ptr %50, align 4
  %146 = getelementptr inbounds [3 x float], ptr %48, i64 0, i64 0
  %147 = getelementptr inbounds [3 x float], ptr %48, i64 0, i64 0
  %148 = call noundef float @_ZL5iprodPKfS0_(ptr noundef %146, ptr noundef %147)
  store float %148, ptr %31, align 4
  %149 = load float, ptr %31, align 4
  %150 = load float, ptr %31, align 4
  %151 = call noundef float @_ZN3gmxL7invsqrtEf(float noundef %150)
  %152 = fmul float %149, %151
  store float %152, ptr %30, align 4
  %153 = load float, ptr %39, align 4
  %154 = fneg float %153
  %155 = load float, ptr %30, align 4
  %156 = load float, ptr %38, align 4
  %157 = fsub float %155, %156
  %158 = fmul float %154, %157
  %159 = call noundef float @_ZSt3expf(float noundef %158)
  store float %159, ptr %32, align 4
  %160 = load float, ptr %32, align 4
  %161 = fcmp oeq float %160, 1.000000e+00
  br i1 %161, label %162, label %169

162:                                              ; preds = %58
  %163 = load float, ptr %46, align 4
  %164 = load float, ptr %43, align 4
  %165 = fsub float %163, %164
  %166 = load ptr, ptr %23, align 8
  %167 = load float, ptr %166, align 4
  %168 = fadd float %167, %165
  store float %168, ptr %166, align 4
  br label %54, !llvm.loop !65

169:                                              ; preds = %58
  %170 = load float, ptr %32, align 4
  %171 = fsub float 1.000000e+00, %170
  store float %171, ptr %33, align 4
  %172 = load float, ptr %40, align 4
  %173 = load float, ptr %33, align 4
  %174 = fmul float %172, %173
  store float %174, ptr %34, align 4
  %175 = load float, ptr %34, align 4
  %176 = load float, ptr %33, align 4
  %177 = fmul float %175, %176
  store float %177, ptr %36, align 4
  %178 = load float, ptr %39, align 4
  %179 = fmul float -2.000000e+00, %178
  %180 = load float, ptr %32, align 4
  %181 = fmul float %179, %180
  %182 = load float, ptr %34, align 4
  %183 = fmul float %181, %182
  %184 = load float, ptr %31, align 4
  %185 = call noundef float @_ZN3gmxL7invsqrtEf(float noundef %184)
  %186 = fmul float %183, %185
  store float %186, ptr %35, align 4
  %187 = load float, ptr %36, align 4
  %188 = load float, ptr %37, align 4
  %189 = fadd float %188, %187
  store float %189, ptr %37, align 4
  %190 = load float, ptr %46, align 4
  %191 = load float, ptr %43, align 4
  %192 = fsub float %190, %191
  %193 = load float, ptr %33, align 4
  %194 = fmul float %192, %193
  %195 = load float, ptr %33, align 4
  %196 = load float, ptr %33, align 4
  %197 = call float @llvm.fmuladd.f32(float -2.000000e+00, float %196, float 2.000000e+00)
  %198 = load float, ptr %33, align 4
  %199 = fmul float %197, %198
  %200 = load float, ptr %40, align 4
  %201 = fmul float %199, %200
  %202 = load float, ptr %44, align 4
  %203 = load float, ptr %41, align 4
  %204 = fsub float %202, %203
  %205 = load float, ptr %39, align 4
  %206 = load float, ptr %45, align 4
  %207 = load float, ptr %42, align 4
  %208 = fsub float %206, %207
  %209 = load float, ptr %30, align 4
  %210 = load float, ptr %38, align 4
  %211 = fsub float %209, %210
  %212 = fmul float %208, %211
  %213 = fneg float %212
  %214 = call float @llvm.fmuladd.f32(float %204, float %205, float %213)
  %215 = fmul float %201, %214
  %216 = fneg float %215
  %217 = call float @llvm.fmuladd.f32(float %194, float %195, float %216)
  %218 = load ptr, ptr %23, align 8
  %219 = load float, ptr %218, align 4
  %220 = fadd float %219, %217
  store float %220, ptr %218, align 4
  %221 = load float, ptr %35, align 4
  %222 = getelementptr inbounds [3 x float], ptr %48, i64 0, i64 0
  %223 = load i32, ptr %52, align 4
  %224 = load i32, ptr %53, align 4
  %225 = load ptr, ptr %19, align 8
  %226 = load i32, ptr %50, align 4
  %227 = load ptr, ptr %20, align 8
  call void @_ZN12_GLOBAL__N_116spreadBondForcesIL18BondedKernelFlavor1EEEvfPKfiiPA4_fiPA3_f(float noundef %221, ptr noundef %222, i32 noundef %223, i32 noundef %224, ptr noundef %225, i32 noundef %226, ptr noundef %227)
  br label %54, !llvm.loop !65

228:                                              ; preds = %54
  %229 = load float, ptr %37, align 4
  ret float %229
}