; Function Attrs: mustprogress uwtable
define internal noundef float @_ZN12_GLOBAL__N_111morse_bondsIL18BondedKernelFlavor1EEEfiPKiPK9t_iparamsPA3_KfPA4_fPA3_fPK5t_pbcfPfN3gmx8ArrayRefIS7_EEP8t_fcdataP12t_disresdataP12t_oriresdataPi(i32 noundef %0, ptr nocapture noundef readonly %1, ptr nocapture noundef readonly %2, ptr noundef %3, ptr nocapture noundef %4, ptr nocapture readnone %5, ptr noundef %6, float noundef %7, ptr nocapture noundef %8, ptr nocapture noundef readnone byval(%"class.gmx::ArrayRef") align 8 %9, ptr nocapture readnone %10, ptr nocapture readnone %11, ptr nocapture readnone %12, ptr nocapture readnone %13) #4 {
  %15 = alloca [3 x float], align 8
  %16 = icmp sgt i32 %0, 0
  br i1 %16, label %.lr.ph.lr.ph, label %.outer._crit_edge

.lr.ph.lr.ph:                                     ; preds = %14
  %17 = fsub float 1.000000e+00, %7
  %.not.i = icmp eq ptr %6, null
  %18 = getelementptr inbounds i8, ptr %15, i64 8
  %19 = zext nneg i32 %0 to i64
  br label %.lr.ph

.lr.ph:                                           ; preds = %.lr.ph.lr.ph, %_ZN12_GLOBAL__N_116spreadBondForcesIL18BondedKernelFlavor1EEEvfPKfiiPA4_fiPA3_f.exit
  %.0.ph98 = phi float [ 0.000000e+00, %.lr.ph.lr.ph ], [ %116, %_ZN12_GLOBAL__N_116spreadBondForcesIL18BondedKernelFlavor1EEEvfPKfiiPA4_fiPA3_f.exit ]
  %.079.ph97 = phi i64 [ 0, %.lr.ph.lr.ph ], [ %indvars.iv.next, %_ZN12_GLOBAL__N_116spreadBondForcesIL18BondedKernelFlavor1EEEvfPKfiiPA4_fiPA3_f.exit ]
  %sext = shl i64 %.079.ph97, 32
  %20 = ashr exact i64 %sext, 32
  br label %21

21:                                               ; preds = %.lr.ph, %75
  %indvars.iv = phi i64 [ %20, %.lr.ph ], [ %indvars.iv.next, %75 ]
  %22 = getelementptr inbounds i32, ptr %1, i64 %indvars.iv
  %23 = load i32, ptr %22, align 4
  %24 = getelementptr i8, ptr %22, i64 4
  %25 = load i32, ptr %24, align 4
  %indvars.iv.next = add nsw i64 %indvars.iv, 3
  %26 = getelementptr i8, ptr %22, i64 8
  %27 = load i32, ptr %26, align 4
  %28 = sext i32 %23 to i64
  %29 = getelementptr inbounds %union.t_iparams, ptr %2, i64 %28
  %30 = load float, ptr %29, align 4
  %31 = getelementptr inbounds i8, ptr %29, i64 8
  %32 = load float, ptr %31, align 4
  %33 = getelementptr inbounds i8, ptr %29, i64 4
  %34 = load float, ptr %33, align 4
  %35 = getelementptr inbounds i8, ptr %29, i64 12
  %36 = load float, ptr %35, align 4
  %37 = getelementptr inbounds i8, ptr %29, i64 20
  %38 = load float, ptr %37, align 4
  %39 = getelementptr inbounds i8, ptr %29, i64 16
  %40 = load float, ptr %39, align 4
  %41 = fmul float %36, %7
  %42 = call float @llvm.fmuladd.f32(float %17, float %30, float %41)
  %43 = fmul float %38, %7
  %44 = call float @llvm.fmuladd.f32(float %17, float %32, float %43)
  %45 = sext i32 %25 to i64
  %46 = getelementptr inbounds [3 x float], ptr %3, i64 %45
  %47 = sext i32 %27 to i64
  %48 = getelementptr inbounds [3 x float], ptr %3, i64 %47
  br i1 %.not.i, label %52, label %49

49:                                               ; preds = %21
  %50 = call noundef i32 @_Z11pbc_dx_aiucPK5t_pbcPKfS3_Pf(ptr noundef nonnull %6, ptr noundef %46, ptr noundef %48, ptr noundef nonnull %15)
  %51 = load <2 x float>, ptr %15, align 8
  %.pre130 = load float, ptr %18, align 8
  br label %_ZN12_GLOBAL__N_112pbc_rvec_subEPK5t_pbcPKfS4_Pf.exit

52:                                               ; preds = %21
  %53 = load <2 x float>, ptr %46, align 4
  %54 = load <2 x float>, ptr %48, align 4
  %55 = fsub <2 x float> %53, %54
  %56 = getelementptr inbounds i8, ptr %46, i64 8
  %57 = load float, ptr %56, align 4
  %58 = getelementptr inbounds i8, ptr %48, i64 8
  %59 = load float, ptr %58, align 4
  %60 = fsub float %57, %59
  store <2 x float> %55, ptr %15, align 8
  store float %60, ptr %18, align 8
  br label %_ZN12_GLOBAL__N_112pbc_rvec_subEPK5t_pbcPKfS4_Pf.exit

_ZN12_GLOBAL__N_112pbc_rvec_subEPK5t_pbcPKfS4_Pf.exit: ; preds = %49, %52
  %61 = phi float [ %.pre130, %49 ], [ %60, %52 ]
  %62 = phi <2 x float> [ %51, %49 ], [ %55, %52 ]
  %63 = fmul <2 x float> %62, %62
  %64 = extractelement <2 x float> %63, i64 1
  %65 = extractelement <2 x float> %62, i64 0
  %66 = call float @llvm.fmuladd.f32(float %65, float %65, float %64)
  %67 = call noundef float @llvm.fmuladd.f32(float %61, float %61, float %66)
  %sqrt = call float @llvm.sqrt.f32(float %67)
  %68 = fdiv float 1.000000e+00, %sqrt
  %69 = fmul float %67, %68
  %70 = fneg float %44
  %71 = fsub float %69, %42
  %72 = fmul float %71, %70
  %73 = call noundef float @expf(float noundef %72) #22
  %74 = fcmp oeq float %73, 1.000000e+00
  br i1 %74, label %75, label %80

75:                                               ; preds = %_ZN12_GLOBAL__N_112pbc_rvec_subEPK5t_pbcPKfS4_Pf.exit
  %76 = fsub float %40, %34
  %77 = load float, ptr %8, align 4
  %78 = fadd float %76, %77
  store float %78, ptr %8, align 4
  %79 = icmp slt i64 %indvars.iv.next, %19
  br i1 %79, label %21, label %.outer._crit_edge, !llvm.loop !67

80:                                               ; preds = %_ZN12_GLOBAL__N_112pbc_rvec_subEPK5t_pbcPKfS4_Pf.exit
  %81 = fmul float %40, %7
  %82 = call float @llvm.fmuladd.f32(float %17, float %34, float %81)
  %83 = fsub float 1.000000e+00, %73
  %84 = fmul float %82, %83
  %85 = fmul float %44, -2.000000e+00
  %86 = fmul float %85, %73
  %87 = fmul float %86, %84
  %88 = fmul float %87, %68
  %89 = fsub float %40, %34
  %90 = fmul float %89, %83
  %91 = call float @llvm.fmuladd.f32(float %83, float -2.000000e+00, float 2.000000e+00)
  %92 = fsub float %36, %30
  %93 = fsub float %38, %32
  %94 = fneg float %93
  %95 = fmul float %71, %94
  %96 = call float @llvm.fmuladd.f32(float %92, float %44, float %95)
  %97 = fneg float %91
  %98 = fmul float %83, %97
  %99 = fmul float %82, %98
  %100 = fmul float %99, %96
  %101 = call float @llvm.fmuladd.f32(float %90, float %83, float %100)
  %102 = load float, ptr %8, align 4
  %103 = fadd float %101, %102
  store float %103, ptr %8, align 4
  br label %104

104:                                              ; preds = %104, %80
  %indvars.iv.i = phi i64 [ 0, %80 ], [ %indvars.iv.next.i, %104 ]
  %105 = getelementptr inbounds float, ptr %15, i64 %indvars.iv.i
  %106 = load float, ptr %105, align 4
  %107 = fmul float %88, %106
  %108 = getelementptr inbounds [4 x float], ptr %4, i64 %45, i64 %indvars.iv.i
  %109 = load float, ptr %108, align 4
  %110 = fadd float %109, %107
  store float %110, ptr %108, align 4
  %111 = getelementptr inbounds [4 x float], ptr %4, i64 %47, i64 %indvars.iv.i
  %112 = load float, ptr %111, align 4
  %113 = fsub float %112, %107
  store float %113, ptr %111, align 4
  %indvars.iv.next.i = add nuw nsw i64 %indvars.iv.i, 1
  %exitcond.not.i = icmp eq i64 %indvars.iv.next.i, 3
  br i1 %exitcond.not.i, label %_ZN12_GLOBAL__N_116spreadBondForcesIL18BondedKernelFlavor1EEEvfPKfiiPA4_fiPA3_f.exit, label %104, !llvm.loop !65

_ZN12_GLOBAL__N_116spreadBondForcesIL18BondedKernelFlavor1EEEvfPKfiiPA4_fiPA3_f.exit: ; preds = %104
  %114 = trunc nsw i64 %indvars.iv.next to i32
  %115 = fmul float %83, %84
  %116 = fadd float %.0.ph98, %115
  %117 = icmp slt i32 %114, %0
  br i1 %117, label %.lr.ph, label %.outer._crit_edge, !llvm.loop !67

.outer._crit_edge:                                ; preds = %_ZN12_GLOBAL__N_116spreadBondForcesIL18BondedKernelFlavor1EEEvfPKfiiPA4_fiPA3_f.exit, %75, %14
  %.0.ph.lcssa = phi float [ 0.000000e+00, %14 ], [ %.0.ph98, %75 ], [ %116, %_ZN12_GLOBAL__N_116spreadBondForcesIL18BondedKernelFlavor1EEEvfPKfiiPA4_fiPA3_f.exit ]
  ret float %.0.ph.lcssa
}